	.file	"main.cpp"
	.text
	.local	_ZStL8__ioinit
	.comm	_ZStL8__ioinit,1,1
	.globl	_Z9fibonaccii
	.type	_Z9fibonaccii, @function
_Z9fibonaccii:
.LFB1761:
	.cfi_startproc
	pushq	%rbp
	.cfi_def_cfa_offset 16
	.cfi_offset 6, -16
	movq	%rsp, %rbp
	.cfi_def_cfa_register 6
	pushq	%rbx
	subq	$24, %rsp
	.cfi_offset 3, -24
	movl	%edi, -20(%rbp)
	cmpl	$1, -20(%rbp)
	jg	.L2
	movl	-20(%rbp), %eax
	jmp	.L3
.L2:
	movl	-20(%rbp), %eax
	subl	$1, %eax
	movl	%eax, %edi
	call	_Z9fibonaccii
	movl	%eax, %ebx
	movl	-20(%rbp), %eax
	subl	$2, %eax
	movl	%eax, %edi
	call	_Z9fibonaccii
	addl	%ebx, %eax
.L3:
	movq	-8(%rbp), %rbx
	leave
	.cfi_def_cfa 7, 8
	ret
	.cfi_endproc
.LFE1761:
	.size	_Z9fibonaccii, .-_Z9fibonaccii
	.section	.rodata
.LC0:
	.string	"Enter the positon:"
.LC1:
	.string	"The "
	.align 8
.LC2:
	.string	" number in the fibonacci series is: "
	.text
	.globl	main
	.type	main, @function
main:
.LFB1762:
	.cfi_startproc
	pushq	%rbp
	.cfi_def_cfa_offset 16
	.cfi_offset 6, -16
	movq	%rsp, %rbp
	.cfi_def_cfa_register 6
	pushq	%rbx
	subq	$40, %rsp
	.cfi_offset 3, -24
	movl	%edi, -36(%rbp)
	movq	%rsi, -48(%rbp)
	movl	$.LC0, %esi
	movl	$_ZSt4cout, %edi
	call	_ZStlsISt11char_traitsIcEERSt13basic_ostreamIcT_ES5_PKc
	movl	$_ZSt4endlIcSt11char_traitsIcEERSt13basic_ostreamIT_T0_ES6_, %esi
	movq	%rax, %rdi
	call	_ZNSolsEPFRSoS_E
	leaq	-20(%rbp), %rax
	movq	%rax, %rsi
	movl	$_ZSt3cin, %edi
	call	_ZNSirsERi
	movl	$.LC1, %esi
	movl	$_ZSt4cout, %edi
	call	_ZStlsISt11char_traitsIcEERSt13basic_ostreamIcT_ES5_PKc
	movq	%rax, %rdx
	movl	-20(%rbp), %eax
	movl	%eax, %esi
	movq	%rdx, %rdi
	call	_ZNSolsEi
	movl	$.LC2, %esi
	movq	%rax, %rdi
	call	_ZStlsISt11char_traitsIcEERSt13basic_ostreamIcT_ES5_PKc
	movq	%rax, %rbx
	movl	-20(%rbp), %eax
	movl	%eax, %edi
	call	_Z9fibonaccii
	movl	%eax, %esi
	movq	%rbx, %rdi
	call	_ZNSolsEi
	movl	$_ZSt4endlIcSt11char_traitsIcEERSt13basic_ostreamIT_T0_ES6_, %esi
	movq	%rax, %rdi
	call	_ZNSolsEPFRSoS_E
	movl	$0, %eax
	movq	-8(%rbp), %rbx
	leave
	.cfi_def_cfa 7, 8
	ret
	.cfi_endproc
.LFE1762:
	.size	main, .-main
	.type	_Z41__static_initialization_and_destruction_0ii, @function
_Z41__static_initialization_and_destruction_0ii:
.LFB2294:
	.cfi_startproc
	pushq	%rbp
	.cfi_def_cfa_offset 16
	.cfi_offset 6, -16
	movq	%rsp, %rbp
	.cfi_def_cfa_register 6
	subq	$16, %rsp
	movl	%edi, -4(%rbp)
	movl	%esi, -8(%rbp)
	cmpl	$1, -4(%rbp)
	jne	.L8
	cmpl	$65535, -8(%rbp)
	jne	.L8
	movl	$_ZStL8__ioinit, %edi
	call	_ZNSt8ios_base4InitC1Ev
	movl	$__dso_handle, %edx
	movl	$_ZStL8__ioinit, %esi
	movl	$_ZNSt8ios_base4InitD1Ev, %edi
	call	__cxa_atexit
.L8:
	nop
	leave
	.cfi_def_cfa 7, 8
	ret
	.cfi_endproc
.LFE2294:
	.size	_Z41__static_initialization_and_destruction_0ii, .-_Z41__static_initialization_and_destruction_0ii
	.type	_GLOBAL__sub_I__Z9fibonaccii, @function
_GLOBAL__sub_I__Z9fibonaccii:
.LFB2295:
	.cfi_startproc
	pushq	%rbp
	.cfi_def_cfa_offset 16
	.cfi_offset 6, -16
	movq	%rsp, %rbp
	.cfi_def_cfa_register 6
	movl	$65535, %esi
	movl	$1, %edi
	call	_Z41__static_initialization_and_destruction_0ii
	popq	%rbp
	.cfi_def_cfa 7, 8
	ret
	.cfi_endproc
.LFE2295:
	.size	_GLOBAL__sub_I__Z9fibonaccii, .-_GLOBAL__sub_I__Z9fibonaccii
	.section	.init_array,"aw"
	.align 8
	.quad	_GLOBAL__sub_I__Z9fibonaccii
	.hidden	__dso_handle
	.ident	"GCC: (GNU) 12.2.1 20220819 (Red Hat 12.2.1-2)"
	.section	.note.GNU-stack,"",@progbits
